(igraph
graph
p1
(dp2
S'e'
I9
sS'vertices'
p3
(lp4
(lp5
(I1
I3
tp6
a(I2
I1
tp7
aa(lp8
(I0
I3
tp9
a(I2
I2
tp10
a(I3
I1
tp11
aa(lp12
(I0
I1
tp13
a(I1
I2
tp14
a(I3
I2
tp15
a(I4
I3
tp16
aa(lp17
(I2
I2
tp18
a(I4
I3
tp19
a(I5
I4
tp20
a(I1
I1
tp21
aa(lp22
(I2
I3
tp23
a(I3
I3
tp24
a(I5
I1
tp25
aa(lp26
(I3
I4
tp27
a(I4
I1
tp28
aasS'v'
I6
sb.